target datalayout = "e-m:e-p270:32:32-p271:32:32-p272:64:64-i64:64-i128:128-f80:128-n8:16:32:64-S128"
target triple = "x86_64-pc-linux-gnu"

%struct.DdManager = type { %struct.DdNode, ptr, ptr, ptr, ptr, ptr, ptr, ptr, i32, i32, double, double, double, i32, i32, i32, i32, i32, i32, ptr, ptr, %struct.DdSubtable, i32, i32, i32, i32, i32, i32, i32, double, i32, i32, i32, ptr, i64, double, i32, ptr, ptr, ptr, ptr, ptr, ptr, ptr, i32, ptr, ptr, ptr, ptr, ptr, ptr, i32, i32, i32, double, i32, i32, i32, i32, double, double, i32, i32, i32, i32, i32, i32, i32, i32, i32, ptr, ptr, i32, i32, i32, i32, i32, i32, ptr, ptr, ptr, ptr, ptr, ptr, ptr, ptr, i32, i64, i64, i64, i32, i64, i64, double, double, double, double, double, double, i32, ptr, ptr, i64 }
%struct.DdNode = type { i32, i32, ptr, %union.anon, i64 }
%union.anon = type { %struct.DdChildren }
%struct.DdChildren = type { ptr, ptr }
%struct.DdSubtable = type { ptr, i32, i32, i32, i32, i32, i32, i32, i32, i32, i32, i32 }

@cuddRand = internal global i64 0, align 8
@cuddRand2 = internal global i64 0, align 8
@shuffleSelect = internal global i64 0, align 8
@shuffleTable = internal global [64 x i64] zeroinitializer, align 16

; Function Attrs: nounwind uwtable
define void @Cudd_Srandom(i64 noundef %0) #0 {
  %2 = alloca i64, align 8
  %3 = alloca i32, align 4
  %4 = alloca i64, align 8
  store i64 %0, ptr %2, align 8
  %5 = load i64, ptr %2, align 8
  %6 = icmp slt i64 %5, 0
  br i1 %6, label %7, label %10

7:                                                ; preds = %1
  %8 = load i64, ptr %2, align 8
  %9 = sub nsw i64 0, %8
  store i64 %9, ptr @cuddRand, align 8
  br label %17

10:                                               ; preds = %1
  %11 = load i64, ptr %2, align 8
  %12 = icmp eq i64 %11, 0
  br i1 %12, label %13, label %14

13:                                               ; preds = %10
  store i64 1, ptr @cuddRand, align 8
  br label %16

14:                                               ; preds = %10
  %15 = load i64, ptr %2, align 8
  store i64 %15, ptr @cuddRand, align 8
  br label %16

16:                                               ; preds = %14, %13
  br label %17

17:                                               ; preds = %16, %7
  %18 = load i64, ptr @cuddRand, align 8
  store i64 %18, ptr @cuddRand2, align 8
  store i32 0, ptr %3, align 4
  br label %19

19:                                               ; preds = %45, %17
  %20 = load i32, ptr %3, align 4
  %21 = icmp slt i32 %20, 75
  br i1 %21, label %22, label %48

22:                                               ; preds = %19
  %23 = load i64, ptr @cuddRand, align 8
  %24 = sdiv i64 %23, 53668
  store i64 %24, ptr %4, align 8
  %25 = load i64, ptr @cuddRand, align 8
  %26 = load i64, ptr %4, align 8
  %27 = mul nsw i64 %26, 53668
  %28 = sub nsw i64 %25, %27
  %29 = mul nsw i64 40014, %28
  %30 = load i64, ptr %4, align 8
  %31 = mul nsw i64 %30, 12211
  %32 = sub nsw i64 %29, %31
  store i64 %32, ptr @cuddRand, align 8
  %33 = load i64, ptr @cuddRand, align 8
  %34 = icmp slt i64 %33, 0
  %35 = zext i1 %34 to i32
  %36 = mul nsw i32 %35, 2147483563
  %37 = sext i32 %36 to i64
  %38 = load i64, ptr @cuddRand, align 8
  %39 = add nsw i64 %38, %37
  store i64 %39, ptr @cuddRand, align 8
  %40 = load i64, ptr @cuddRand, align 8
  %41 = load i32, ptr %3, align 4
  %42 = srem i32 %41, 64
  %43 = sext i32 %42 to i64
  %44 = getelementptr inbounds [64 x i64], ptr @shuffleTable, i64 0, i64 %43
  store i64 %40, ptr %44, align 8
  br label %45

45:                                               ; preds = %22
  %46 = load i32, ptr %3, align 4
  %47 = add nsw i32 %46, 1
  store i32 %47, ptr %3, align 4
  br label %19, !llvm.loop !78

48:                                               ; preds = %19
  %49 = getelementptr inbounds [64 x i64], ptr @shuffleTable, i64 0, i64 1
  %50 = load i64, ptr %49, align 8
  store i64 %50, ptr @shuffleSelect, align 8
  ret void
}

; Function Attrs: nounwind uwtable
define i64 @Cudd_Random() #0 {
  %1 = alloca i32, align 4
  %2 = alloca i64, align 8
  %3 = load i64, ptr @cuddRand, align 8
  %4 = icmp eq i64 %3, 0
  br i1 %4, label %5, label %6

5:                                                ; preds = %0
  call void @Cudd_Srandom(i64 noundef 1)
  br label %6

6:                                                ; preds = %5, %0
  %7 = load i64, ptr @cuddRand, align 8
  %8 = sdiv i64 %7, 53668
  store i64 %8, ptr %2, align 8
  %9 = load i64, ptr @cuddRand, align 8
  %10 = load i64, ptr %2, align 8
  %11 = mul nsw i64 %10, 53668
  %12 = sub nsw i64 %9, %11
  %13 = mul nsw i64 40014, %12
  %14 = load i64, ptr %2, align 8
  %15 = mul nsw i64 %14, 12211
  %16 = sub nsw i64 %13, %15
  store i64 %16, ptr @cuddRand, align 8
  %17 = load i64, ptr @cuddRand, align 8
  %18 = icmp slt i64 %17, 0
  %19 = zext i1 %18 to i32
  %20 = mul nsw i32 %19, 2147483563
  %21 = sext i32 %20 to i64
  %22 = load i64, ptr @cuddRand, align 8
  %23 = add nsw i64 %22, %21
  store i64 %23, ptr @cuddRand, align 8
  %24 = load i64, ptr @cuddRand2, align 8
  %25 = sdiv i64 %24, 52774
  store i64 %25, ptr %2, align 8
  %26 = load i64, ptr @cuddRand2, align 8
  %27 = load i64, ptr %2, align 8
  %28 = mul nsw i64 %27, 52774
  %29 = sub nsw i64 %26, %28
  %30 = mul nsw i64 40692, %29
  %31 = load i64, ptr %2, align 8
  %32 = mul nsw i64 %31, 3791
  %33 = sub nsw i64 %30, %32
  store i64 %33, ptr @cuddRand2, align 8
  %34 = load i64, ptr @cuddRand2, align 8
  %35 = icmp slt i64 %34, 0
  %36 = zext i1 %35 to i32
  %37 = mul nsw i32 %36, 2147483399
  %38 = sext i32 %37 to i64
  %39 = load i64, ptr @cuddRand2, align 8
  %40 = add nsw i64 %39, %38
  store i64 %40, ptr @cuddRand2, align 8
  %41 = load i64, ptr @shuffleSelect, align 8
  %42 = sdiv i64 %41, 33554431
  %43 = trunc i64 %42 to i32
  store i32 %43, ptr %1, align 4
  %44 = load i32, ptr %1, align 4
  %45 = sext i32 %44 to i64
  %46 = getelementptr inbounds [64 x i64], ptr @shuffleTable, i64 0, i64 %45
  %47 = load i64, ptr %46, align 8
  %48 = load i64, ptr @cuddRand2, align 8
  %49 = sub nsw i64 %47, %48
  store i64 %49, ptr @shuffleSelect, align 8
  %50 = load i64, ptr @cuddRand, align 8
  %51 = load i32, ptr %1, align 4
  %52 = sext i32 %51 to i64
  %53 = getelementptr inbounds [64 x i64], ptr @shuffleTable, i64 0, i64 %52
  store i64 %50, ptr %53, align 8
  %54 = load i64, ptr @shuffleSelect, align 8
  %55 = icmp slt i64 %54, 1
  %56 = zext i1 %55 to i32
  %57 = mul nsw i32 %56, 2147483562
  %58 = sext i32 %57 to i64
  %59 = load i64, ptr @shuffleSelect, align 8
  %60 = add nsw i64 %59, %58
  store i64 %60, ptr @shuffleSelect, align 8
  %61 = load i64, ptr @shuffleSelect, align 8
  %62 = sub nsw i64 %61, 1
  ret i64 %62
}

; Function Attrs: nounwind uwtable
define i32 @Cudd_bddPickOneCube(ptr noundef %0, ptr noundef %1, ptr noundef %2) #0 {
  %4 = alloca i32, align 4
  %5 = alloca ptr, align 8
  %6 = alloca ptr, align 8
  %7 = alloca ptr, align 8
  %8 = alloca ptr, align 8
  %9 = alloca ptr, align 8
  %10 = alloca ptr, align 8
  %11 = alloca ptr, align 8
  %12 = alloca ptr, align 8
  %13 = alloca i8, align 1
  %14 = alloca i32, align 4
  store ptr %0, ptr %5, align 8
  store ptr %1, ptr %6, align 8
  store ptr %2, ptr %7, align 8
  %15 = load ptr, ptr %7, align 8
  %16 = icmp eq ptr %15, null
  br i1 %16, label %20, label %17

17:                                               ; preds = %3
  %18 = load ptr, ptr %6, align 8
  %19 = icmp eq ptr %18, null
  br i1 %19, label %20, label %21

20:                                               ; preds = %17, %3
  store i32 0, ptr %4, align 4
  br label %129

21:                                               ; preds = %17
  %22 = load ptr, ptr %5, align 8
  %23 = getelementptr inbounds %struct.DdManager, ptr %22, i32 0, i32 1
  %24 = load ptr, ptr %23, align 8
  store ptr %24, ptr %11, align 8
  %25 = load ptr, ptr %11, align 8
  %26 = ptrtoint ptr %25 to i64
  %27 = xor i64 %26, 1
  %28 = inttoptr i64 %27 to ptr
  store ptr %28, ptr %12, align 8
  %29 = load ptr, ptr %6, align 8
  %30 = load ptr, ptr %12, align 8
  %31 = icmp eq ptr %29, %30
  br i1 %31, label %32, label %33

32:                                               ; preds = %21
  store i32 0, ptr %4, align 4
  br label %129

33:                                               ; preds = %21
  store i32 0, ptr %14, align 4
  br label %34

34:                                               ; preds = %45, %33
  %35 = load i32, ptr %14, align 4
  %36 = load ptr, ptr %5, align 8
  %37 = getelementptr inbounds %struct.DdManager, ptr %36, i32 0, i32 15
  %38 = load i32, ptr %37, align 8
  %39 = icmp slt i32 %35, %38
  br i1 %39, label %40, label %48

40:                                               ; preds = %34
  %41 = load ptr, ptr %7, align 8
  %42 = load i32, ptr %14, align 4
  %43 = sext i32 %42 to i64
  %44 = getelementptr inbounds i8, ptr %41, i64 %43
  store i8 2, ptr %44, align 1
  br label %45

45:                                               ; preds = %40
  %46 = load i32, ptr %14, align 4
  %47 = add nsw i32 %46, 1
  store i32 %47, ptr %14, align 4
  br label %34, !llvm.loop !32

48:                                               ; preds = %34
  br label %49

49:                                               ; preds = %127, %48
  %50 = load ptr, ptr %6, align 8
  %51 = load ptr, ptr %11, align 8
  %52 = icmp eq ptr %50, %51
  br i1 %52, label %53, label %54

53:                                               ; preds = %49
  br label %128

54:                                               ; preds = %49
  %55 = load ptr, ptr %6, align 8
  %56 = ptrtoint ptr %55 to i64
  %57 = and i64 %56, -2
  %58 = inttoptr i64 %57 to ptr
  store ptr %58, ptr %8, align 8
  %59 = load ptr, ptr %8, align 8
  %60 = getelementptr inbounds %struct.DdNode, ptr %59, i32 0, i32 3
  %61 = getelementptr inbounds %struct.DdChildren, ptr %60, i32 0, i32 0
  %62 = load ptr, ptr %61, align 8
  store ptr %62, ptr %9, align 8
  %63 = load ptr, ptr %8, align 8
  %64 = getelementptr inbounds %struct.DdNode, ptr %63, i32 0, i32 3
  %65 = getelementptr inbounds %struct.DdChildren, ptr %64, i32 0, i32 1
  %66 = load ptr, ptr %65, align 8
  store ptr %66, ptr %10, align 8
  %67 = load ptr, ptr %6, align 8
  %68 = ptrtoint ptr %67 to i64
  %69 = and i64 %68, 1
  %70 = trunc i64 %69 to i32
  %71 = icmp ne i32 %70, 0
  br i1 %71, label %72, label %81

72:                                               ; preds = %54
  %73 = load ptr, ptr %9, align 8
  %74 = ptrtoint ptr %73 to i64
  %75 = xor i64 %74, 1
  %76 = inttoptr i64 %75 to ptr
  store ptr %76, ptr %9, align 8
  %77 = load ptr, ptr %10, align 8
  %78 = ptrtoint ptr %77 to i64
  %79 = xor i64 %78, 1
  %80 = inttoptr i64 %79 to ptr
  store ptr %80, ptr %10, align 8
  br label %81

81:                                               ; preds = %72, %54
  %82 = load ptr, ptr %9, align 8
  %83 = load ptr, ptr %12, align 8
  %84 = icmp eq ptr %82, %83
  br i1 %84, label %85, label %93

85:                                               ; preds = %81
  %86 = load ptr, ptr %7, align 8
  %87 = load ptr, ptr %8, align 8
  %88 = getelementptr inbounds %struct.DdNode, ptr %87, i32 0, i32 0
  %89 = load i32, ptr %88, align 8
  %90 = zext i32 %89 to i64
  %91 = getelementptr inbounds i8, ptr %86, i64 %90
  store i8 0, ptr %91, align 1
  %92 = load ptr, ptr %10, align 8
  store ptr %92, ptr %6, align 8
  br label %127

93:                                               ; preds = %81
  %94 = load ptr, ptr %10, align 8
  %95 = load ptr, ptr %12, align 8
  %96 = icmp eq ptr %94, %95
  br i1 %96, label %97, label %105

97:                                               ; preds = %93
  %98 = load ptr, ptr %7, align 8
  %99 = load ptr, ptr %8, align 8
  %100 = getelementptr inbounds %struct.DdNode, ptr %99, i32 0, i32 0
  %101 = load i32, ptr %100, align 8
  %102 = zext i32 %101 to i64
  %103 = getelementptr inbounds i8, ptr %98, i64 %102
  store i8 1, ptr %103, align 1
  %104 = load ptr, ptr %9, align 8
  store ptr %104, ptr %6, align 8
  br label %126

105:                                              ; preds = %93
  %106 = call i64 @Cudd_Random()
  %107 = and i64 %106, 8192
  %108 = ashr i64 %107, 13
  %109 = trunc i64 %108 to i8
  store i8 %109, ptr %13, align 1
  %110 = load i8, ptr %13, align 1
  %111 = load ptr, ptr %7, align 8
  %112 = load ptr, ptr %8, align 8
  %113 = getelementptr inbounds %struct.DdNode, ptr %112, i32 0, i32 0
  %114 = load i32, ptr %113, align 8
  %115 = zext i32 %114 to i64
  %116 = getelementptr inbounds i8, ptr %111, i64 %115
  store i8 %110, ptr %116, align 1
  %117 = load i8, ptr %13, align 1
  %118 = sext i8 %117 to i32
  %119 = icmp ne i32 %118, 0
  br i1 %119, label %120, label %122

120:                                              ; preds = %105
  %121 = load ptr, ptr %9, align 8
  br label %124

122:                                              ; preds = %105
  %123 = load ptr, ptr %10, align 8
  br label %124

124:                                              ; preds = %122, %120
  %125 = phi ptr [ %121, %120 ], [ %123, %122 ]
  store ptr %125, ptr %6, align 8
  br label %126

126:                                              ; preds = %124, %97
  br label %127

127:                                              ; preds = %126, %85
  br label %49

128:                                              ; preds = %53
  store i32 1, ptr %4, align 4
  br label %129

129:                                              ; preds = %128, %32, %20
  %130 = load i32, ptr %4, align 4
  ret i32 %130
}