; Function Attrs: nofree norecurse nosync nounwind memory(readwrite, inaccessiblemem: none) uwtable
define range(i32 0, 2) i32 @Cudd_bddPickOneCube(ptr noundef readonly captures(none) %0, ptr noundef %1, ptr noundef writeonly %2) local_unnamed_addr #8 {
  %4 = icmp eq ptr %2, null
  %5 = icmp eq ptr %1, null
  %or.cond = or i1 %5, %4
  br i1 %or.cond, label %.loopexit, label %6

6:                                                ; preds = %3
  %7 = getelementptr inbounds nuw i8, ptr %0, i64 40
  %8 = load ptr, ptr %7, align 8
  %9 = ptrtoint ptr %8 to i64
  %10 = xor i64 %9, 1
  %11 = inttoptr i64 %10 to ptr
  %12 = icmp eq ptr %1, %11
  br i1 %12, label %.loopexit, label %.preheader45

.preheader45:                                     ; preds = %6
  %13 = getelementptr inbounds nuw i8, ptr %0, i64 136
  %14 = load i32, ptr %13, align 8
  %15 = icmp sgt i32 %14, 0
  br i1 %15, label %.lr.ph, label %.preheader44

.preheader44:                                     ; preds = %.lr.ph, %.preheader45
  %16 = icmp eq ptr %1, %8
  br i1 %16, label %.loopexit, label %.lr.ph48.preheader

.lr.ph48.preheader:                               ; preds = %.preheader44
  %cuddRand2.promoted = load i64, ptr @cuddRand2, align 8
  %cuddRand.promoted = load i64, ptr @cuddRand, align 8
  br label %.lr.ph48

.lr.ph:                                           ; preds = %.preheader45, %.lr.ph
  %indvars.iv = phi i64 [ %indvars.iv.next, %.lr.ph ], [ 0, %.preheader45 ]
  %17 = getelementptr inbounds nuw i8, ptr %2, i64 %indvars.iv
  store i8 2, ptr %17, align 1
  %indvars.iv.next = add nuw nsw i64 %indvars.iv, 1
  %18 = load i32, ptr %13, align 8
  %19 = sext i32 %18 to i64
  %20 = icmp slt i64 %indvars.iv.next, %19
  br i1 %20, label %.lr.ph, label %.preheader44, !llvm.loop !27

.lr.ph48:                                         ; preds = %.lr.ph48.preheader, %91
  %.03747 = phi ptr [ %.1, %91 ], [ %1, %.lr.ph48.preheader ]
  %21 = phi i64 [ %93, %91 ], [ %cuddRand.promoted, %.lr.ph48.preheader ]
  %22 = phi i64 [ %92, %91 ], [ %cuddRand2.promoted, %.lr.ph48.preheader ]
  %23 = ptrtoint ptr %.03747 to i64
  %24 = and i64 %23, -2
  %25 = inttoptr i64 %24 to ptr
  %26 = getelementptr inbounds nuw i8, ptr %25, i64 16
  %27 = load ptr, ptr %26, align 8
  %28 = getelementptr inbounds nuw i8, ptr %25, i64 24
  %29 = load ptr, ptr %28, align 8
  %30 = and i64 %23, 1
  %.not = icmp eq i64 %30, 0
  %31 = ptrtoint ptr %27 to i64
  %32 = xor i64 %31, 1
  %33 = inttoptr i64 %32 to ptr
  %34 = ptrtoint ptr %29 to i64
  %35 = xor i64 %34, 1
  %36 = inttoptr i64 %35 to ptr
  %.039 = select i1 %.not, ptr %29, ptr %36
  %.038 = select i1 %.not, ptr %27, ptr %33
  %37 = icmp eq ptr %.038, %11
  br i1 %37, label %38, label %42

38:                                               ; preds = %.lr.ph48
  %39 = load i32, ptr %25, align 8
  %40 = zext i32 %39 to i64
  %41 = getelementptr inbounds nuw i8, ptr %2, i64 %40
  store i8 0, ptr %41, align 1
  br label %91

42:                                               ; preds = %.lr.ph48
  %43 = icmp eq ptr %.039, %11
  br i1 %43, label %44, label %48

44:                                               ; preds = %42
  %45 = load i32, ptr %25, align 8
  %46 = zext i32 %45 to i64
  %47 = getelementptr inbounds nuw i8, ptr %2, i64 %46
  store i8 1, ptr %47, align 1
  br label %91

48:                                               ; preds = %42
  %49 = icmp eq i64 %21, 0
  br i1 %49, label %.preheader, label %Cudd_Random.exit

.preheader:                                       ; preds = %48, %.preheader
  %.011.i.i = phi i32 [ %60, %.preheader ], [ 0, %48 ]
  %50 = phi i64 [ %56, %.preheader ], [ 1, %48 ]
  %51 = sdiv i64 %50, 53668
  %.neg.i.i = mul nsw i64 %51, -53668
  %52 = add i64 %.neg.i.i, %50
  %53 = mul nsw i64 %52, 40014
  %.neg10.i.i = mul nsw i64 %51, -12211
  %54 = add i64 %53, %.neg10.i.i
  %isneg.i.i = icmp slt i64 %54, 0
  %55 = select i1 %isneg.i.i, i64 2147483563, i64 0
  %56 = add nsw i64 %55, %54
  %57 = and i32 %.011.i.i, 63
  %58 = zext nneg i32 %57 to i64
  %59 = getelementptr inbounds nuw [64 x i64], ptr @shuffleTable, i64 0, i64 %58
  store i64 %56, ptr %59, align 8
  %60 = add nuw nsw i32 %.011.i.i, 1
  %exitcond.not.i.i = icmp eq i32 %60, 75
  br i1 %exitcond.not.i.i, label %Cudd_Random.exit, label %.preheader, !llvm.loop !28

Cudd_Random.exit:                                 ; preds = %.preheader, %48
  %.in.i = phi ptr [ @shuffleSelect, %48 ], [ getelementptr inbounds nuw (i8, ptr @shuffleTable, i64 8), %.preheader ]
  %61 = phi i64 [ %22, %48 ], [ 1, %.preheader ]
  %62 = phi i64 [ %21, %48 ], [ 477372060, %.preheader ]
  %63 = load i64, ptr %.in.i, align 8
  %64 = sdiv i64 %62, 53668
  %.neg.i = mul nsw i64 %64, -53668
  %65 = add i64 %.neg.i, %62
  %66 = mul nsw i64 %65, 40014
  %.neg6.i = mul nsw i64 %64, -12211
  %67 = add i64 %66, %.neg6.i
  %isneg.i = icmp slt i64 %67, 0
  %68 = select i1 %isneg.i, i64 2147483563, i64 0
  %69 = add nsw i64 %68, %67
  store i64 %69, ptr @cuddRand, align 8
  %70 = sdiv i64 %61, 52774
  %.neg7.i = mul nsw i64 %70, -52774
  %71 = add i64 %.neg7.i, %61
  %72 = mul nsw i64 %71, 40692
  %.neg8.i = mul nsw i64 %70, -3791
  %73 = add i64 %72, %.neg8.i
  %isneg9.i = icmp slt i64 %73, 0
  %74 = select i1 %isneg9.i, i64 2147483399, i64 0
  %75 = add nsw i64 %74, %73
  store i64 %75, ptr @cuddRand2, align 8
  %76 = sdiv i64 %63, 33554431
  %sext.i = shl i64 %76, 32
  %77 = ashr exact i64 %sext.i, 32
  %78 = getelementptr inbounds [64 x i64], ptr @shuffleTable, i64 0, i64 %77
  %79 = load i64, ptr %78, align 8
  %80 = sub nsw i64 %79, %75
  store i64 %69, ptr %78, align 8
  %.inv.i = icmp sgt i64 %80, 0
  %81 = select i1 %.inv.i, i64 0, i64 2147483562
  %82 = add nsw i64 %81, %80
  store i64 %82, ptr @shuffleSelect, align 8
  %83 = add i64 %82, 16383
  %84 = lshr i64 %83, 13
  %85 = trunc i64 %84 to i8
  %86 = and i8 %85, 1
  %87 = load i32, ptr %25, align 8
  %88 = zext i32 %87 to i64
  %89 = getelementptr inbounds nuw i8, ptr %2, i64 %88
  store i8 %86, ptr %89, align 1
  %.not43 = icmp eq i8 %86, 0
  %90 = select i1 %.not43, ptr %.039, ptr %.038
  br label %91

91:                                               ; preds = %44, %Cudd_Random.exit, %38
  %92 = phi i64 [ %22, %38 ], [ %22, %44 ], [ %75, %Cudd_Random.exit ]
  %93 = phi i64 [ %21, %38 ], [ %21, %44 ], [ %69, %Cudd_Random.exit ]
  %.1 = phi ptr [ %.039, %38 ], [ %.038, %44 ], [ %90, %Cudd_Random.exit ]
  %94 = icmp eq ptr %.1, %8
  br i1 %94, label %.loopexit, label %.lr.ph48

.loopexit:                                        ; preds = %91, %.preheader44, %6, %3
  %.036 = phi i32 [ 0, %3 ], [ 0, %6 ], [ 1, %.preheader44 ], [ 1, %91 ]
  ret i32 %.036
}